; Function Attrs: nounwind uwtable
define internal noundef ptr @ehooks_default_alloc(ptr readnone captures(none) %0, ptr noundef %1, i64 noundef %2, i64 noundef %3, ptr noundef %4, ptr noundef %5, i32 noundef %6) #1 {
  %8 = load i8, ptr @je_tsd_booted, align 1, !tbaa !11, !range !13, !noundef !14
  %9 = trunc nuw i8 %8 to i1
  br i1 %9, label %10, label %tsdn_fetch.exit

10:                                               ; preds = %7
  %11 = tail call nonnull align 8 ptr @llvm.threadlocal.address.p0(ptr align 8 @je_tsd_tls)
  %12 = getelementptr inbounds nuw i8, ptr %11, i64 888
  %13 = load i8, ptr %12, align 8, !tbaa !15
  %.not.i = icmp eq i8 %13, 0
  br i1 %.not.i, label %tsdn_fetch.exit, label %14, !prof !16

14:                                               ; preds = %10
  %15 = tail call ptr @je_tsd_fetch_slow(ptr noundef nonnull %11, i1 noundef zeroext false) #6
  br label %tsdn_fetch.exit

tsdn_fetch.exit:                                  ; preds = %14, %10, %7
  %.0.i = phi ptr [ null, %7 ], [ %15, %14 ], [ %11, %10 ]
  %16 = add i64 %3, 4095
  %17 = and i64 %16, -4096
  %18 = tail call ptr @je_ehooks_default_alloc_impl(ptr noundef %.0.i, ptr noundef %1, i64 noundef %2, i64 noundef %17, ptr noundef %4, ptr noundef %5, i32 noundef %6)
  ret ptr %18
}